; Function Attrs: null_pointer_is_valid sspstrong uwtable
define internal fastcc void @dissect_uftp_complete(ptr noundef %0, ptr noundef %1, ptr noundef %2) unnamed_addr #0 {
  %4 = tail call i32 @tvb_reported_length(ptr noundef %0)
  %5 = icmp ult i32 %4, 8
  br i1 %5, label %6, label %9

6:                                                ; preds = %3
  %7 = tail call i32 @tvb_reported_length(ptr noundef %0)
  %8 = tail call ptr (ptr, ptr, ptr, ptr, i32, i32, ptr, ...) @proto_tree_add_expert_format(ptr noundef %2, ptr noundef %1, ptr noundef nonnull @ei_uftp_length_invalid, ptr noundef %0, i32 noundef 0, i32 noundef -1, ptr noundef nonnull @.str.289, i32 noundef %7)
  br label %.loopexit

9:                                                ; preds = %3
  %10 = tail call zeroext i16 @tvb_get_ntohs(ptr noundef %0, i32 noundef 4)
  %11 = tail call i32 @tvb_reported_length(ptr noundef %0)
  %12 = zext i16 %10 to i32
  %13 = shl nuw nsw i32 %12, 2
  %14 = add nuw nsw i32 %13, 8
  %15 = icmp slt i32 %11, %14
  br i1 %15, label %16, label %19

16:                                               ; preds = %9
  %17 = tail call i32 @tvb_reported_length(ptr noundef %0)
  %18 = tail call ptr (ptr, ptr, ptr, ptr, i32, i32, ptr, ...) @proto_tree_add_expert_format(ptr noundef %2, ptr noundef %1, ptr noundef nonnull @ei_uftp_length_invalid, ptr noundef %0, i32 noundef 0, i32 noundef -1, ptr noundef nonnull @.str.292, i32 noundef %17, i32 noundef %12)
  br label %.loopexit

19:                                               ; preds = %9
  %20 = tail call zeroext i16 @tvb_get_ntohs(ptr noundef %0, i32 noundef 2)
  %.not = icmp eq i16 %20, 0
  br i1 %.not, label %25, label %21

21:                                               ; preds = %19
  %22 = zext i16 %20 to i32
  %23 = getelementptr inbounds nuw i8, ptr %1, i64 8
  %24 = load ptr, ptr %23, align 8
  tail call void (ptr, i32, ptr, ...) @col_append_fstr(ptr noundef %24, i32 noundef 25, ptr noundef nonnull @.str.293, i32 noundef %22)
  br label %25

25:                                               ; preds = %21, %19
  %26 = load i32, ptr @hf_uftp_complete, align 4
  %27 = tail call ptr @proto_tree_add_item(ptr noundef %2, i32 noundef %26, ptr noundef %0, i32 noundef 0, i32 noundef -1, i32 noundef 0)
  %28 = load i32, ptr @ett_uftp_complete, align 4
  %29 = tail call ptr @proto_item_add_subtree(ptr noundef %27, i32 noundef %28)
  %30 = load i32, ptr @hf_uftp_complete_func, align 4
  %31 = tail call ptr @proto_tree_add_item(ptr noundef %29, i32 noundef %30, ptr noundef %0, i32 noundef 0, i32 noundef 1, i32 noundef 0)
  %32 = load i32, ptr @hf_uftp_complete_status, align 4
  %33 = tail call ptr @proto_tree_add_item(ptr noundef %29, i32 noundef %32, ptr noundef %0, i32 noundef 1, i32 noundef 1, i32 noundef 0)
  %34 = load i32, ptr @hf_uftp_complete_file_id, align 4
  %35 = tail call ptr @proto_tree_add_item(ptr noundef %29, i32 noundef %34, ptr noundef %0, i32 noundef 2, i32 noundef 2, i32 noundef 0)
  %36 = load i32, ptr @hf_uftp_complete_destcount, align 4
  %37 = tail call ptr @proto_tree_add_item(ptr noundef %29, i32 noundef %36, ptr noundef %0, i32 noundef 4, i32 noundef 2, i32 noundef 0)
  %38 = load i32, ptr @hf_uftp_complete_reserved2, align 4
  %39 = tail call ptr @proto_tree_add_item(ptr noundef %29, i32 noundef %38, ptr noundef %0, i32 noundef 6, i32 noundef 2, i32 noundef 0)
  %.not58 = icmp eq i16 %10, 0
  br i1 %.not58, label %.loopexit, label %.lr.ph.preheader

.lr.ph.preheader:                                 ; preds = %25
  %40 = load i32, ptr @hf_uftp_destlist, align 4
  %41 = tail call ptr @proto_tree_add_item(ptr noundef %29, i32 noundef %40, ptr noundef %0, i32 noundef 8, i32 noundef %13, i32 noundef 0)
  %42 = load i32, ptr @ett_uftp_destlist, align 4
  %43 = tail call ptr @proto_item_add_subtree(ptr noundef %41, i32 noundef %42)
  br label %.lr.ph

.lr.ph:                                           ; preds = %.lr.ph.preheader, %.lr.ph
  %.060 = phi i16 [ %47, %.lr.ph ], [ 0, %.lr.ph.preheader ]
  %.05559 = phi i32 [ %46, %.lr.ph ], [ 8, %.lr.ph.preheader ]
  %44 = load i32, ptr @hf_uftp_dest, align 4
  %45 = tail call ptr @proto_tree_add_item(ptr noundef %43, i32 noundef %44, ptr noundef %0, i32 noundef %.05559, i32 noundef 4, i32 noundef 0)
  %46 = add nuw nsw i32 %.05559, 4
  %47 = add nuw i16 %.060, 1
  %exitcond.not = icmp eq i16 %47, %10
  br i1 %exitcond.not, label %.loopexit, label %.lr.ph, !llvm.loop !16

.loopexit:                                        ; preds = %.lr.ph, %25, %16, %6
  ret void
}